; Function Attrs: mustprogress uwtable
define void @_ZN6casadi14SerializerBase4packERKd(ptr nocapture noundef nonnull readonly align 8 dereferenceable(16) %0, ptr nocapture noundef nonnull readonly align 8 dereferenceable(8) %1) local_unnamed_addr #3 align 2 {
  %3 = getelementptr inbounds i8, ptr %0, i64 8
  %4 = load ptr, ptr %3, align 8
  tail call void @_ZN6casadi17SerializingStream4packEc(ptr noundef nonnull align 8 dereferenceable(73) %4, i8 noundef signext 8)
  %5 = load ptr, ptr %3, align 8
  %6 = load double, ptr %1, align 8
  tail call void @_ZN6casadi17SerializingStream4packEd(ptr noundef nonnull align 8 dereferenceable(73) %5, double noundef %6)
  ret void
}